(dp1
S'output'
p2
S"<type 'exceptions.TypeError'> <pydal.helpers.classes.RecordUpdater object at 0x10bb7c590> is not JSON serializable"
p3
sS'layer'
p4
S'/Users/admin/Desktop/cmps183/web2py/applications/grubmeet/controllers/user_pref.py'
p5
sS'code'
p6
S'<code object <module> at 0x10bc7fab0, file "/Users/admin/Desktop/cmps183/web2py/applications/grubmeet/controllers/user_pref.py", line 1>'
p7
sS'snapshot'
p8
(dp9
S'exception'
p10
(dp11
S'__getslice__'
p12
S"<method-wrapper '__getslice__' of exceptions.TypeError object>"
p13
sS'__str__'
p14
S"<method-wrapper '__str__' of exceptions.TypeError object>"
p15
sS'__reduce__'
p16
S'<built-in method __reduce__ of exceptions.TypeError object>'
p17
sS'__dict__'
p18
S'{}'
p19
sS'message'
p20
S"'<pydal.helpers.classes.RecordUpdater object at 0x10bb7c590> is not JSON serializable'"
p21
sS'__sizeof__'
p22
S'<built-in method __sizeof__ of exceptions.TypeError object>'
p23
sS'__init__'
p24
S"<method-wrapper '__init__' of exceptions.TypeError object>"
p25
sS'__setattr__'
p26
S"<method-wrapper '__setattr__' of exceptions.TypeError object>"
p27
sS'__reduce_ex__'
p28
S'<built-in method __reduce_ex__ of exceptions.TypeError object>'
p29
sS'__new__'
p30
S'<built-in method __new__ of type object>'
p31
sS'__format__'
p32
S'<built-in method __format__ of exceptions.TypeError object>'
p33
sS'__class__'
p34
S"<type 'exceptions.TypeError'>"
p35
sS'__doc__'
p36
S"'Inappropriate argument type.'"
p37
sS'__getitem__'
p38
S"<method-wrapper '__getitem__' of exceptions.TypeError object>"
p39
sS'__setstate__'
p40
S'<built-in method __setstate__ of exceptions.TypeError object>'
p41
sS'__getattribute__'
p42
S"<method-wrapper '__getattribute__' of exceptions.TypeError object>"
p43
sS'args'
p44
S"('<pydal.helpers.classes.RecordUpdater object at 0x10bb7c590> is not JSON serializable',)"
p45
sS'__subclasshook__'
p46
S'<built-in method __subclasshook__ of type object>'
p47
sS'__unicode__'
p48
S'<built-in method __unicode__ of exceptions.TypeError object>'
p49
sS'__delattr__'
p50
S"<method-wrapper '__delattr__' of exceptions.TypeError object>"
p51
sS'__repr__'
p52
S"<method-wrapper '__repr__' of exceptions.TypeError object>"
p53
sS'__hash__'
p54
S"<method-wrapper '__hash__' of exceptions.TypeError object>"
p55
ssS'evalue'
p56
S'<pydal.helpers.classes.RecordUpdater object at 0x10bb7c590> is not JSON serializable'
p57
sS'request'
p58
cgluon.html
XML_unpickle
p59
(S's\xeci\x00\x00<div><table><tr><td style="font-weight:bold;vertical-align:top;">ajax</td><td style="vertical-align:top;">:</td><td><div>True</div></td></tr><tr><td style="font-weight:bold;vertical-align:top;">application</td><td style="vertical-align:top;">:</td><td><div>grubmeet</div></td></tr><tr><td style="font-weight:bold;vertical-align:top;">args</td><td style="vertical-align:top;">:</td><td><div><table></table></div></td></tr><tr><td style="font-weight:bold;vertical-align:top;">cid</td><td style="vertical-align:top;">:</td><td><div>None</div></td></tr><tr><td style="font-weight:bold;vertical-align:top;">client</td><td style="vertical-align:top;">:</td><td><div>127.0.0.1</div></td></tr><tr><td style="font-weight:bold;vertical-align:top;">controller</td><td style="vertical-align:top;">:</td><td><div>user_pref</div></td></tr><tr><td style="font-weight:bold;vertical-align:top;">cookies</td><td style="vertical-align:top;">:</td><td><div><table><tr><td style="font-weight:bold;vertical-align:top;">session_id_admin</td><td style="vertical-align:top;">:</td><td><div>127.0.0.1-c35ee24a-4c0e-4e11-aa88-e7292df51d70<table><tr><td style="font-weight:bold;vertical-align:top;">comment</td><td style="vertical-align:top;">:</td><td><div></div></td></tr><tr><td style="font-weight:bold;vertical-align:top;">domain</td><td style="vertical-align:top;">:</td><td><div></div></td></tr><tr><td style="font-weight:bold;vertical-align:top;">expires</td><td style="vertical-align:top;">:</td><td><div></div></td></tr><tr><td style="font-weight:bold;vertical-align:top;">httponly</td><td style="vertical-align:top;">:</td><td><div></div></td></tr><tr><td style="font-weight:bold;vertical-align:top;">max-age</td><td style="vertical-align:top;">:</td><td><div></div></td></tr><tr><td style="font-weight:bold;vertical-align:top;">path</td><td style="vertical-align:top;">:</td><td><div></div></td></tr><tr><td style="font-weight:bold;vertical-align:top;">secure</td><td style="vertical-align:top;">:</td><td><div></div></td></tr><tr><td style="font-weight:bold;vertical-align:top;">version</td><td style="vertical-align:top;">:</td><td><div></div></td></tr></table></div></td></tr><tr><td style="font-weight:bold;vertical-align:top;">session_id_grubmeet</td><td style="vertical-align:top;">:</td><td><div>8:9af1b1b8-ae83-43d2-bbac-2e36ef88f220<table><tr><td style="font-weight:bold;vertical-align:top;">comment</td><td style="vertical-align:top;">:</td><td><div></div></td></tr><tr><td style="font-weight:bold;vertical-align:top;">domain</td><td style="vertical-align:top;">:</td><td><div></div></td></tr><tr><td style="font-weight:bold;vertical-align:top;">expires</td><td style="vertical-align:top;">:</td><td><div></div></td></tr><tr><td style="font-weight:bold;vertical-align:top;">httponly</td><td style="vertical-align:top;">:</td><td><div></div></td></tr><tr><td style="font-weight:bold;vertical-align:top;">max-age</td><td style="vertical-align:top;">:</td><td><div></div></td></tr><tr><td style="font-weight:bold;vertical-align:top;">path</td><td style="vertical-align:top;">:</td><td><div></div></td></tr><tr><td style="font-weight:bold;vertical-align:top;">secure</td><td style="vertical-align:top;">:</td><td><div></div></td></tr><tr><td style="font-weight:bold;vertical-align:top;">version</td><td style="vertical-align:top;">:</td><td><div></div></td></tr></table></div></td></tr><tr><td style="font-weight:bold;vertical-align:top;">session_id_hw5</td><td style="vertical-align:top;">:</td><td><div>12:2e7bbf5e-6529-4d47-89cb-aef25e03d100<table><tr><td style="font-weight:bold;vertical-align:top;">comment</td><td style="vertical-align:top;">:</td><td><div></div></td></tr><tr><td style="font-weight:bold;vertical-align:top;">domain</td><td style="vertical-align:top;">:</td><td><div></div></td></tr><tr><td style="font-weight:bold;vertical-align:top;">expires</td><td style="vertical-align:top;">:</td><td><div></div></td></tr><tr><td style="font-weight:bold;vertical-align:top;">httponly</td><td style="vertical-align:top;">:</td><td><div></div></td></tr><tr><td style="font-weight:bold;vertical-align:top;">max-age</td><td style="vertical-align:top;">:</td><td><div></div></td></tr><tr><td style="font-weight:bold;vertical-align:top;">path</td><td style="vertical-align:top;">:</td><td><div></div></td></tr><tr><td style="font-weight:bold;vertical-align:top;">secure</td><td style="vertical-align:top;">:</td><td><div></div></td></tr><tr><td style="font-weight:bold;vertical-align:top;">version</td><td style="vertical-align:top;">:</td><td><div></div></td></tr></table></div></td></tr><tr><td style="font-weight:bold;vertical-align:top;">session_id_welcome</td><td style="vertical-align:top;">:</td><td><div>127.0.0.1-5f8be3c8-0847-4326-a22e-ca3c93dff176<table><tr><td style="font-weight:bold;vertical-align:top;">comment</td><td style="vertical-align:top;">:</td><td><div></div></td></tr><tr><td style="font-weight:bold;vertical-align:top;">domain</td><td style="vertical-align:top;">:</td><td><div></div></td></tr><tr><td style="font-weight:bold;vertical-align:top;">expires</td><td style="vertical-align:top;">:</td><td><div></div></td></tr><tr><td style="font-weight:bold;vertical-align:top;">httponly</td><td style="vertical-align:top;">:</td><td><div></div></td></tr><tr><td style="font-weight:bold;vertical-align:top;">max-age</td><td style="vertical-align:top;">:</td><td><div></div></td></tr><tr><td style="font-weight:bold;vertical-align:top;">path</td><td style="vertical-align:top;">:</td><td><div></div></td></tr><tr><td style="font-weight:bold;vertical-align:top;">secure</td><td style="vertical-align:top;">:</td><td><div></div></td></tr><tr><td style="font-weight:bold;vertical-align:top;">version</td><td style="vertical-align:top;">:</td><td><div></div></td></tr></table></div></td></tr></table></div></td></tr><tr><td style="font-weight:bold;vertical-align:top;">env</td><td style="vertical-align:top;">:</td><td><div><table><tr><td style="font-weight:bold;vertical-align:top;">CONTENT_LENGTH</td><td style="vertical-align:top;">:</td><td><div>624</div></td></tr><tr><td style="font-weight:bold;vertical-align:top;">CONTENT_TYPE</td><td style="vertical-align:top;">:</td><td><div>application/x-www-form-urlencoded; charset=UTF-8</div></td></tr><tr><td style="font-weight:bold;vertical-align:top;">HTTP_ACCEPT</td><td style="vertical-align:top;">:</td><td><div>*/*</div></td></tr><tr><td style="font-weight:bold;vertical-align:top;">HTTP_ACCEPT_ENCODING</td><td style="vertical-align:top;">:</td><td><div>gzip, deflate, br</div></td></tr><tr><td style="font-weight:bold;vertical-align:top;">HTTP_ACCEPT_LANGUAGE</td><td style="vertical-align:top;">:</td><td><div>en-US,en;q=0.9,zh-TW;q=0.8,zh;q=0.7,zh-CN;q=0.6</div></td></tr><tr><td style="font-weight:bold;vertical-align:top;">HTTP_CONNECTION</td><td style="vertical-align:top;">:</td><td><div>keep-alive</div></td></tr><tr><td style="font-weight:bold;vertical-align:top;">HTTP_CONTENT_LENGTH</td><td style="vertical-align:top;">:</td><td><div>624</div></td></tr><tr><td style="font-weight:bold;vertical-align:top;">HTTP_CONTENT_TYPE</td><td style="vertical-align:top;">:</td><td><div>application/x-www-form-urlencoded; charset=UTF-8</div></td></tr><tr><td style="font-weight:bold;vertical-align:top;">HTTP_COOKIE</td><td style="vertical-align:top;">:</td><td><div>session_id_admin=127.0.0.1-c35ee24a-4c0e-4e11-aa88-e7292df51d70; session_id_hw5=&quot;12:2e7bbf5e-6529-4d47-89cb-aef25e03d100&quot;; session_id_grubmeet=&quot;8:9af1b1b8-ae83-43d2-bbac-2e36ef88f220&quot;; session_id_welcome=127.0.0.1-5f8be3c8-0847-4326-a22e-ca3c93dff176</div></td></tr><tr><td style="font-weight:bold;vertical-align:top;">HTTP_HOST</td><td style="vertical-align:top;">:</td><td><div>127.0.0.1:8000</div></td></tr><tr><td style="font-weight:bold;vertical-align:top;">HTTP_ORIGIN</td><td style="vertical-align:top;">:</td><td><div>http://127.0.0.1:8000</div></td></tr><tr><td style="font-weight:bold;vertical-align:top;">HTTP_REFERER</td><td style="vertical-align:top;">:</td><td><div>http://127.0.0.1:8000/grubmeet/default/preferences</div></td></tr><tr><td style="font-weight:bold;vertical-align:top;">HTTP_USER_AGENT</td><td style="vertical-align:top;">:</td><td><div>Mozilla/5.0 (Macintosh; Intel Mac OS X 10_12_6) AppleWebKit/537.36 (KHTML, like Gecko) Chrome/67.0.3396.79 Safari/537.36</div></td></tr><tr><td style="font-weight:bold;vertical-align:top;">HTTP_X_REQUESTED_WITH</td><td style="vertical-align:top;">:</td><td><div>XMLHttpRequest</div></td></tr><tr><td style="font-weight:bold;vertical-align:top;">PATH_INFO</td><td style="vertical-align:top;">:</td><td><div>/grubmeet/user_pref/update_avatar</div></td></tr><tr><td style="font-weight:bold;vertical-align:top;">QUERY_STRING</td><td style="vertical-align:top;">:</td><td><div>_signature=3a1811e88303219e1c5cb5c3c88363e85fea8f23</div></td></tr><tr><td style="font-weight:bold;vertical-align:top;">REMOTE_ADDR</td><td style="vertical-align:top;">:</td><td><div>127.0.0.1</div></td></tr><tr><td style="font-weight:bold;vertical-align:top;">REMOTE_PORT</td><td style="vertical-align:top;">:</td><td><div>62081</div></td></tr><tr><td style="font-weight:bold;vertical-align:top;">REQUEST_METHOD</td><td style="vertical-align:top;">:</td><td><div>POST</div></td></tr><tr><td style="font-weight:bold;vertical-align:top;">SCRIPT_NAME</td><td style="vertical-align:top;">:</td><td><div></div></td></tr><tr><td style="font-weight:bold;vertical-align:top;">SERVER_NAME</td><td style="vertical-align:top;">:</td><td><div>admins-MacBook-Pro-3.local</div></td></tr><tr><td style="font-weight:bold;vertical-align:top;">SERVER_PORT</td><td style="vertical-align:top;">:</td><td><div>8000</div></td></tr><tr><td style="font-weight:bold;vertical-align:top;">SERVER_PROTOCOL</td><td style="vertical-align:top;">:</td><td><div>HTTP/1.1</div></td></tr><tr><td style="font-weight:bold;vertical-align:top;">SERVER_SOFTWARE</td><td style="vertical-align:top;">:</td><td><div>Rocket 1.2.6</div></td></tr><tr><td style="font-weight:bold;vertical-align:top;">app_folders</td><td style="vertical-align:top;">:</td><td><div>set([&#x27;/Users/admin/Desktop/cmps183/web2py/applications/hw5/&#x27;, &#x27;/Users/admin/Desktop/cmps183/web2py/applications/welcome/&#x27;, &#x27;/Users/admin/Desktop/cmps183/web2py/applications/admin/&#x27;, &#x27;/Users/admin/Desktop/cmps183/web2py/applications/grubmeet/&#x27;])</div></td></tr><tr><td style="font-weight:bold;vertical-align:top;">applications_parent</td><td style="vertical-align:top;">:</td><td><div>/Users/admin/Desktop/cmps183/web2py</div></td></tr><tr><td style="font-weight:bold;vertical-align:top;">cmd_args</td><td style="vertical-align:top;">:</td><td><div><table></table></div></td></tr><tr><td style="font-weight:bold;vertical-align:top;">cmd_options</td><td style="vertical-align:top;">:</td><td><div>&lt;Values at 0x1045168c0: {&#x27;verbose&#x27;: False, &#x27;ip&#x27;: &#x27;127.0.0.1&#x27;, &#x27;debuglevel&#x27;: 30, &#x27;with_scheduler&#x27;: False, &#x27;shutdown_timeout&#x27;: 5, &#x27;taskbar&#x27;: False, &#x27;with_coverage&#x27;: False, &#x27;pid_filename&#x27;: &#x27;httpserver.pid&#x27;, &#x27;maxthreads&#x27;: None, &#x27;softcron&#x27;: False, &#x27;server_name&#x27;: &#x27;admins-MacBook-Pro-3.local&#x27;, &#x27;bpython&#x27;: False, &#x27;nogui&#x27;: False, &#x27;port&#x27;: 8000, &#x27;print_errors&#x27;: True, &#x27;extcron&#x27;: False, &#x27;runcron&#x27;: False, &#x27;run_system_tests&#x27;: False, &#x27;test&#x27;: None, &#x27;folder&#x27;: &#x27;/Users/admin/Desktop/cmps183/web2py&#x27;, &#x27;config&#x27;: &#x27;&#x27;, &#x27;minthreads&#x27;: None, &#x27;shell&#x27;: None, &#x27;run&#x27;: &#x27;&#x27;, &#x27;log_filename&#x27;: &#x27;httpserver.log&#x27;, &#x27;profiler_dir&#x27;: None, &#x27;args&#x27;: [&#x27;&#x27;], &#x27;socket_timeout&#x27;: 5, &#x27;ssl_ca_certificate&#x27;: None, &#x27;scheduler&#x27;: None, &#x27;interfaces&#x27;: None, &#x27;ssl_private_key&#x27;: &#x27;&#x27;, &#x27;gae&#x27;: None, &#x27;password&#x27;: &#x27;******&#x27;, &#x27;request_queue_size&#x27;: 5, &#x27;ssl_certificate&#x27;: &#x27;&#x27;, &#x27;cronjob&#x27;: False, &#x27;numthreads&#x27;: None, &#x27;quiet&#x27;: False, &#x27;import_models&#x27;: False, &#x27;timeout&#x27;: 10, &#x27;plain&#x27;: False, &#x27;nobanner&#x27;: False}&gt;</div></td></tr><tr><td style="font-weight:bold;vertical-align:top;">content_length</td><td style="vertical-align:top;">:</td><td><div>624</div></td></tr><tr><td style="font-weight:bold;vertical-align:top;">content_type</td><td style="vertical-align:top;">:</td><td><div>application/x-www-form-urlencoded; charset=UTF-8</div></td></tr><tr><td style="font-weight:bold;vertical-align:top;">db_sessions</td><td style="vertical-align:top;">:</td><td><div>set([&#x27;hw5&#x27;, &#x27;grubmeet&#x27;])</div></td></tr><tr><td style="font-weight:bold;vertical-align:top;">debugging</td><td style="vertical-align:top;">:</td><td><div>False</div></td></tr><tr><td style="font-weight:bold;vertical-align:top;">gluon_parent</td><td style="vertical-align:top;">:</td><td><div>/Users/admin/Desktop/cmps183/web2py</div></td></tr><tr><td style="font-weight:bold;vertical-align:top;">http_accept</td><td style="vertical-align:top;">:</td><td><div>*/*</div></td></tr><tr><td style="font-weight:bold;vertical-align:top;">http_accept_encoding</td><td style="vertical-align:top;">:</td><td><div>gzip, deflate, br</div></td></tr><tr><td style="font-weight:bold;vertical-align:top;">http_accept_language</td><td style="vertical-align:top;">:</td><td><div>en-US,en;q=0.9,zh-TW;q=0.8,zh;q=0.7,zh-CN;q=0.6</div></td></tr><tr><td style="font-weight:bold;vertical-align:top;">http_connection</td><td style="vertical-align:top;">:</td><td><div>keep-alive</div></td></tr><tr><td style="font-weight:bold;vertical-align:top;">http_content_length</td><td style="vertical-align:top;">:</td><td><div>624</div></td></tr><tr><td style="font-weight:bold;vertical-align:top;">http_content_type</td><td style="vertical-align:top;">:</td><td><div>application/x-www-form-urlencoded; charset=UTF-8</div></td></tr><tr><td style="font-weight:bold;vertical-align:top;">http_cookie</td><td style="vertical-align:top;">:</td><td><div>session_id_admin=127.0.0.1-c35ee24a-4c0e-4e11-aa88-e7292df51d70; session_id_hw5=&quot;12:2e7bbf5e-6529-4d47-89cb-aef25e03d100&quot;; session_id_grubmeet=&quot;8:9af1b1b8-ae83-43d2-bbac-2e36ef88f220&quot;; session_id_welcome=127.0.0.1-5f8be3c8-0847-4326-a22e-ca3c93dff176</div></td></tr><tr><td style="font-weight:bold;vertical-align:top;">http_host</td><td style="vertical-align:top;">:</td><td><div>127.0.0.1:8000</div></td></tr><tr><td style="font-weight:bold;vertical-align:top;">http_origin</td><td style="vertical-align:top;">:</td><td><div>http://127.0.0.1:8000</div></td></tr><tr><td style="font-weight:bold;vertical-align:top;">http_referer</td><td style="vertical-align:top;">:</td><td><div>http://127.0.0.1:8000/grubmeet/default/preferences</div></td></tr><tr><td style="font-weight:bold;vertical-align:top;">http_user_agent</td><td style="vertical-align:top;">:</td><td><div>Mozilla/5.0 (Macintosh; Intel Mac OS X 10_12_6) AppleWebKit/537.36 (KHTML, like Gecko) Chrome/67.0.3396.79 Safari/537.36</div></td></tr><tr><td style="font-weight:bold;vertical-align:top;">http_x_requested_with</td><td style="vertical-align:top;">:</td><td><div>XMLHttpRequest</div></td></tr><tr><td style="font-weight:bold;vertical-align:top;">is_jython</td><td style="vertical-align:top;">:</td><td><div>False</div></td></tr><tr><td style="font-weight:bold;vertical-align:top;">is_py2</td><td style="vertical-align:top;">:</td><td><div>True</div></td></tr><tr><td style="font-weight:bold;vertical-align:top;">is_pypy</td><td style="vertical-align:top;">:</td><td><div>False</div></td></tr><tr><td style="font-weight:bold;vertical-align:top;">is_source</td><td style="vertical-align:top;">:</td><td><div>True</div></td></tr><tr><td style="font-weight:bold;vertical-align:top;">local_hosts</td><td style="vertical-align:top;">:</td><td><div><table><tr><td><div>admins-MacBook-Pro-3.local</div></td></tr><tr><td><div>::1</div></td></tr><tr><td><div>::ffff:127.0.0.1</div></td></tr><tr><td><div>127.0.0.1</div></td></tr></table></div></td></tr><tr><td style="font-weight:bold;vertical-align:top;">path_info</td><td style="vertical-align:top;">:</td><td><div>/grubmeet/user_pref/update_avatar</div></td></tr><tr><td style="font-weight:bold;vertical-align:top;">query_string</td><td style="vertical-align:top;">:</td><td><div>_signature=3a1811e88303219e1c5cb5c3c88363e85fea8f23</div></td></tr><tr><td style="font-weight:bold;vertical-align:top;">remote_addr</td><td style="vertical-align:top;">:</td><td><div>127.0.0.1</div></td></tr><tr><td style="font-weight:bold;vertical-align:top;">remote_port</td><td style="vertical-align:top;">:</td><td><div>62081</div></td></tr><tr><td style="font-weight:bold;vertical-align:top;">request_method</td><td style="vertical-align:top;">:</td><td><div>POST</div></td></tr><tr><td style="font-weight:bold;vertical-align:top;">request_uri</td><td style="vertical-align:top;">:</td><td><div>/grubmeet/user_pref/update_avatar?_signature=3a1811e88303219e1c5cb5c3c88363e85fea8f23</div></td></tr><tr><td style="font-weight:bold;vertical-align:top;">script_name</td><td style="vertical-align:top;">:</td><td><div></div></td></tr><tr><td style="font-weight:bold;vertical-align:top;">server_name</td><td style="vertical-align:top;">:</td><td><div>admins-MacBook-Pro-3.local</div></td></tr><tr><td style="font-weight:bold;vertical-align:top;">server_port</td><td style="vertical-align:top;">:</td><td><div>8000</div></td></tr><tr><td style="font-weight:bold;vertical-align:top;">server_protocol</td><td style="vertical-align:top;">:</td><td><div>HTTP/1.1</div></td></tr><tr><td style="font-weight:bold;vertical-align:top;">server_software</td><td style="vertical-align:top;">:</td><td><div>Rocket 1.2.6</div></td></tr><tr><td style="font-weight:bold;vertical-align:top;">web2py_path</td><td style="vertical-align:top;">:</td><td><div>/Users/admin/Desktop/cmps183/web2py</div></td></tr><tr><td style="font-weight:bold;vertical-align:top;">web2py_version</td><td style="vertical-align:top;">:</td><td><div>2.16.1-stable+timestamp.2017.11.14.05.54.25</div></td></tr><tr><td style="font-weight:bold;vertical-align:top;">wsgi.errors</td><td style="vertical-align:top;">:</td><td><div>&lt;open file &#x27;&lt;stderr&gt;&#x27;, mode &#x27;w&#x27; at 0x102c961e0&gt;</div></td></tr><tr><td style="font-weight:bold;vertical-align:top;">wsgi.file_wrapper</td><td style="vertical-align:top;">:</td><td><div>&lt;class wsgiref.util.FileWrapper at 0x1044c1e20&gt;</div></td></tr><tr><td style="font-weight:bold;vertical-align:top;">wsgi.input</td><td style="vertical-align:top;">:</td><td><div>&lt;socket._fileobject object at 0x10beb28d0&gt;</div></td></tr><tr><td style="font-weight:bold;vertical-align:top;">wsgi.multiprocess</td><td style="vertical-align:top;">:</td><td><div>False</div></td></tr><tr><td style="font-weight:bold;vertical-align:top;">wsgi.multithread</td><td style="vertical-align:top;">:</td><td><div>True</div></td></tr><tr><td style="font-weight:bold;vertical-align:top;">wsgi.run_once</td><td style="vertical-align:top;">:</td><td><div>False</div></td></tr><tr><td style="font-weight:bold;vertical-align:top;">wsgi.url_scheme</td><td style="vertical-align:top;">:</td><td><div>http</div></td></tr><tr><td style="font-weight:bold;vertical-align:top;">wsgi.version</td><td style="vertical-align:top;">:</td><td><div><table><tr><td><div>1</div></td></tr><tr><td><div>0</div></td></tr></table></div></td></tr><tr><td style="font-weight:bold;vertical-align:top;">wsgi_errors</td><td style="vertical-align:top;">:</td><td><div>&lt;open file &#x27;&lt;stderr&gt;&#x27;, mode &#x27;w&#x27; at 0x102c961e0&gt;</div></td></tr><tr><td style="font-weight:bold;vertical-align:top;">wsgi_file_wrapper</td><td style="vertical-align:top;">:</td><td><div>&lt;class wsgiref.util.FileWrapper at 0x1044c1e20&gt;</div></td></tr><tr><td style="font-weight:bold;vertical-align:top;">wsgi_input</td><td style="vertical-align:top;">:</td><td><div>&lt;socket._fileobject object at 0x10beb28d0&gt;</div></td></tr><tr><td style="font-weight:bold;vertical-align:top;">wsgi_multiprocess</td><td style="vertical-align:top;">:</td><td><div>False</div></td></tr><tr><td style="font-weight:bold;vertical-align:top;">wsgi_multithread</td><td style="vertical-align:top;">:</td><td><div>True</div></td></tr><tr><td style="font-weight:bold;vertical-align:top;">wsgi_run_once</td><td style="vertical-align:top;">:</td><td><div>False</div></td></tr><tr><td style="font-weight:bold;vertical-align:top;">wsgi_url_scheme</td><td style="vertical-align:top;">:</td><td><div>http</div></td></tr><tr><td style="font-weight:bold;vertical-align:top;">wsgi_version</td><td style="vertical-align:top;">:</td><td><div><table><tr><td><div>1</div></td></tr><tr><td><div>0</div></td></tr></table></div></td></tr></table></div></td></tr><tr><td style="font-weight:bold;vertical-align:top;">extension</td><td style="vertical-align:top;">:</td><td><div>html</div></td></tr><tr><td style="font-weight:bold;vertical-align:top;">folder</td><td style="vertical-align:top;">:</td><td><div>/Users/admin/Desktop/cmps183/web2py/applications/grubmeet/</div></td></tr><tr><td style="font-weight:bold;vertical-align:top;">function</td><td style="vertical-align:top;">:</td><td><div>update_avatar</div></td></tr><tr><td style="font-weight:bold;vertical-align:top;">global_settings</td><td style="vertical-align:top;">:</td><td><div><table><tr><td style="font-weight:bold;vertical-align:top;">app_folders</td><td style="vertical-align:top;">:</td><td><div>set([&#x27;/Users/admin/Desktop/cmps183/web2py/applications/hw5/&#x27;, &#x27;/Users/admin/Desktop/cmps183/web2py/applications/welcome/&#x27;, &#x27;/Users/admin/Desktop/cmps183/web2py/applications/admin/&#x27;, &#x27;/Users/admin/Desktop/cmps183/web2py/applications/grubmeet/&#x27;])</div></td></tr><tr><td style="font-weight:bold;vertical-align:top;">applications_parent</td><td style="vertical-align:top;">:</td><td><div>/Users/admin/Desktop/cmps183/web2py</div></td></tr><tr><td style="font-weight:bold;vertical-align:top;">cmd_args</td><td style="vertical-align:top;">:</td><td><div><table></table></div></td></tr><tr><td style="font-weight:bold;vertical-align:top;">cmd_options</td><td style="vertical-align:top;">:</td><td><div>&lt;Values at 0x1045168c0: {&#x27;verbose&#x27;: False, &#x27;ip&#x27;: &#x27;127.0.0.1&#x27;, &#x27;debuglevel&#x27;: 30, &#x27;with_scheduler&#x27;: False, &#x27;shutdown_timeout&#x27;: 5, &#x27;taskbar&#x27;: False, &#x27;with_coverage&#x27;: False, &#x27;pid_filename&#x27;: &#x27;httpserver.pid&#x27;, &#x27;maxthreads&#x27;: None, &#x27;softcron&#x27;: False, &#x27;server_name&#x27;: &#x27;admins-MacBook-Pro-3.local&#x27;, &#x27;bpython&#x27;: False, &#x27;nogui&#x27;: False, &#x27;port&#x27;: 8000, &#x27;print_errors&#x27;: True, &#x27;extcron&#x27;: False, &#x27;runcron&#x27;: False, &#x27;run_system_tests&#x27;: False, &#x27;test&#x27;: None, &#x27;folder&#x27;: &#x27;/Users/admin/Desktop/cmps183/web2py&#x27;, &#x27;config&#x27;: &#x27;&#x27;, &#x27;minthreads&#x27;: None, &#x27;shell&#x27;: None, &#x27;run&#x27;: &#x27;&#x27;, &#x27;log_filename&#x27;: &#x27;httpserver.log&#x27;, &#x27;profiler_dir&#x27;: None, &#x27;args&#x27;: [&#x27;&#x27;], &#x27;socket_timeout&#x27;: 5, &#x27;ssl_ca_certificate&#x27;: None, &#x27;scheduler&#x27;: None, &#x27;interfaces&#x27;: None, &#x27;ssl_private_key&#x27;: &#x27;&#x27;, &#x27;gae&#x27;: None, &#x27;password&#x27;: &#x27;******&#x27;, &#x27;request_queue_size&#x27;: 5, &#x27;ssl_certificate&#x27;: &#x27;&#x27;, &#x27;cronjob&#x27;: False, &#x27;numthreads&#x27;: None, &#x27;quiet&#x27;: False, &#x27;import_models&#x27;: False, &#x27;timeout&#x27;: 10, &#x27;plain&#x27;: False, &#x27;nobanner&#x27;: False}&gt;</div></td></tr><tr><td style="font-weight:bold;vertical-align:top;">db_sessions</td><td style="vertical-align:top;">:</td><td><div>set([&#x27;hw5&#x27;, &#x27;grubmeet&#x27;])</div></td></tr><tr><td style="font-weight:bold;vertical-align:top;">debugging</td><td style="vertical-align:top;">:</td><td><div>False</div></td></tr><tr><td style="font-weight:bold;vertical-align:top;">gluon_parent</td><td style="vertical-align:top;">:</td><td><div>/Users/admin/Desktop/cmps183/web2py</div></td></tr><tr><td style="font-weight:bold;vertical-align:top;">is_jython</td><td style="vertical-align:top;">:</td><td><div>False</div></td></tr><tr><td style="font-weight:bold;vertical-align:top;">is_py2</td><td style="vertical-align:top;">:</td><td><div>True</div></td></tr><tr><td style="font-weight:bold;vertical-align:top;">is_pypy</td><td style="vertical-align:top;">:</td><td><div>False</div></td></tr><tr><td style="font-weight:bold;vertical-align:top;">is_source</td><td style="vertical-align:top;">:</td><td><div>True</div></td></tr><tr><td style="font-weight:bold;vertical-align:top;">local_hosts</td><td style="vertical-align:top;">:</td><td><div><table><tr><td><div>admins-MacBook-Pro-3.local</div></td></tr><tr><td><div>::1</div></td></tr><tr><td><div>::ffff:127.0.0.1</div></td></tr><tr><td><div>127.0.0.1</div></td></tr></table></div></td></tr><tr><td style="font-weight:bold;vertical-align:top;">web2py_version</td><td style="vertical-align:top;">:</td><td><div>2.16.1-stable+timestamp.2017.11.14.05.54.25</div></td></tr></table></div></td></tr><tr><td style="font-weight:bold;vertical-align:top;">is_https</td><td style="vertical-align:top;">:</td><td><div>False</div></td></tr><tr><td style="font-weight:bold;vertical-align:top;">is_local</td><td style="vertical-align:top;">:</td><td><div>True</div></td></tr><tr><td style="font-weight:bold;vertical-align:top;">is_restful</td><td style="vertical-align:top;">:</td><td><div>False</div></td></tr><tr><td style="font-weight:bold;vertical-align:top;">is_scheduler</td><td style="vertical-align:top;">:</td><td><div>False</div></td></tr><tr><td style="font-weight:bold;vertical-align:top;">is_shell</td><td style="vertical-align:top;">:</td><td><div>False</div></td></tr><tr><td style="font-weight:bold;vertical-align:top;">now</td><td style="vertical-align:top;">:</td><td><div>datetime.datetime(2018, 6, 12, 5, 40, 53, 55830)</div></td></tr><tr><td style="font-weight:bold;vertical-align:top;">raw_args</td><td style="vertical-align:top;">:</td><td><div></div></td></tr><tr><td style="font-weight:bold;vertical-align:top;">raw_extension</td><td style="vertical-align:top;">:</td><td><div>None</div></td></tr><tr><td style="font-weight:bold;vertical-align:top;">url</td><td style="vertical-align:top;">:</td><td><div>/grubmeet/user_pref/update_avatar</div></td></tr><tr><td style="font-weight:bold;vertical-align:top;">utcnow</td><td style="vertical-align:top;">:</td><td><div>datetime.datetime(2018, 6, 12, 12, 40, 53, 55838)</div></td></tr><tr><td style="font-weight:bold;vertical-align:top;">wsgi</td><td style="vertical-align:top;">:</td><td><div>&lt;gluon.main.LazyWSGI object at 0x10c164710&gt;</div></td></tr></table></div>'
tRp60
sS'frames'
p61
(lp62
(dp63
S'file'
p64
S'/Users/admin/Desktop/cmps183/web2py/gluon/restricted.py'
p65
sS'dump'
p66
(dp67
S'environment'
p68
S"{'A': <class 'gluon.html.A'>, 'ANY_OF': <class 'gluon.validators.ANY_OF'>, 'ASSIGNJS': <function ASSIGNJS>, 'AppConfig': <function AppConfig>, 'Auth': <class 'gluon.tools.Auth'>, 'B': <class 'gluon.html.B'>, 'BEAUTIFY': <class 'gluon.html.BEAUTIFY'>, 'BODY': <class 'gluon.html.BODY'>, 'BR': <class 'gluon.html.BR'>, 'BUTTON': <class 'gluon.html.BUTTON'>, ...}"
p69
sS'ccode'
p70
S'<code object <module> at 0x10bc7fab0, file "/Use...tions/grubmeet/controllers/user_pref.py", line 1>'
p71
ssS'lnum'
p72
I219
sS'lines'
p73
(dp74
I214
S'    if environment is None:'
p75
sI215
S'        environment = {}'
p76
sI216
S"    environment['__file__'] = layer"
p77
sI217
S"    environment['__name__'] = '__restricted__'"
p78
sI218
S'    try:'
p79
sI219
S'        exec(ccode, environment)'
p80
sI220
S'    except HTTP:'
p81
sI221
S'        raise'
p82
sI222
S'    except RestrictedError:'
p83
sI223
S'        # do not encapsulate (obfuscate) the original RestrictedError'
p84
ssS'call'
p85
S'(ccode=<code object <module> at 0x10bc7fab0, file "/Use...tions/grubmeet/controllers/user_pref.py", line 1>, environment={\'A\': <class \'gluon.html.A\'>, \'ANY_OF\': <class \'gluon.validators.ANY_OF\'>, \'ASSIGNJS\': <function ASSIGNJS>, \'AppConfig\': <function AppConfig>, \'Auth\': <class \'gluon.tools.Auth\'>, \'B\': <class \'gluon.html.B\'>, \'BEAUTIFY\': <class \'gluon.html.BEAUTIFY\'>, \'BODY\': <class \'gluon.html.BODY\'>, \'BR\': <class \'gluon.html.BR\'>, \'BUTTON\': <class \'gluon.html.BUTTON\'>, ...}, layer=\'/Users/admin/Desktop/cmps183/web2py/applications/grubmeet/controllers/user_pref.py\', scode=<code object <module> at 0x10bc7fab0, file "/Use...tions/grubmeet/controllers/user_pref.py", line 1>)'
p86
sS'func'
p87
S'restricted'
p88
sa(dp89
g64
S'/Users/admin/Desktop/cmps183/web2py/applications/grubmeet/controllers/user_pref.py'
p90
sg66
(dp91
sg72
I56
sg73
(dp92
I45
S'        row.update_record('
p93
sI46
S'            image_url=request.vars.image_url,'
p94
sI47
S'        )'
p95
sI48
S''
sI49
S'    else:'
p96
sI50
S'        t_id = db.user_avatar.insert('
p97
sI51
S'            image_url=request.vars.image_url,'
p98
sI52
S'        )'
p99
sI53
S'        t = db.user_avatar(t_id)'
p100
sI54
S'    return response.json(dict(t))'
p101
ssg85
S'()'
p102
sg87
S'<module>'
p103
sa(dp104
g64
S'/Users/admin/Desktop/cmps183/web2py/gluon/globals.py'
p105
sg66
(dp106
S'self'
p107
S'undefined'
p108
sS'f'
S'<function update_avatar>'
p109
ssg72
I419
sg73
(dp110
I416
S'        self.menu = []             # used by the default view layout'
p111
sI417
S'        self.files = []            # used by web2py_ajax.html'
p112
sI418
S'        self._vars = None'
p113
sI419
S'        self._caller = lambda f: f()'
p114
sI420
S'        self._view_environment = None'
p115
sI421
S'        self._custom_commit = None'
p116
sI422
S'        self._custom_rollback = None'
p117
sI423
S"        self.generic_patterns = ['*']"
p118
sI414
S"        self.flash = ''            # used by the default view layout"
p119
sI415
S'        self.meta = Storage()      # used by web2py_ajax.html'
p120
ssg85
S'(f=<function update_avatar>)'
p121
sg87
S'<lambda>'
p122
sa(dp123
g64
S'/Users/admin/Desktop/cmps183/web2py/gluon/tools.py'
p124
sg66
(dp125
S'action'
p126
S'<function update_avatar>'
p127
sS'a'
S'()'
p128
sS'b'
g19
ssg72
I3982
sg73
(dp129
I3977
S'                    flag = condition'
p130
sI3978
S'                if not flag:'
p131
sI3979
S'                    current.session.flash = self.messages.access_denied'
p132
sI3980
S'                    return call_or_redirect('
p133
sI3981
S'                        self.settings.on_failed_authorization)'
p134
sI3982
S'                return action(*a, **b)'
p135
sI3983
S'            f.__doc__ = action.__doc__'
p136
sI3984
S'            f.__name__ = action.__name__'
p137
sI3985
S'            f.__dict__.update(action.__dict__)'
p138
sI3986
S'            return f'
p139
ssg85
S'(*a=(), **b={})'
p140
sg87
S'f'
sa(dp141
g64
S'/Users/admin/Desktop/cmps183/web2py/applications/grubmeet/controllers/user_pref.py'
p142
sg66
(dp143
S'builtindict'
p144
S"<type 'dict'>"
p145
sS'global response'
p146
S"<Storage {'body': <cStringIO.StringO object at 0..._data)>, 'view': 'user_pref/update_avatar.html'}>"
p147
sS'response.json'
p148
S"<bound method Response.json of <Storage {'body':...data)>, 'view': 'user_pref/update_avatar.html'}>>"
p149
sS't'
S"<Row {'belongs_to': 1L, 'image_url': 'https://st...vqibBwf43oyUGs8E8ZzbjwsdajCyTg%3D%3D', 'id': 1L}>"
p150
ssg72
I54
sg73
(dp151
I45
S'        row.update_record('
p152
sI46
S'            image_url=request.vars.image_url,'
p153
sI47
S'        )'
p154
sI48
S''
sI49
S'    else:'
p155
sI50
S'        t_id = db.user_avatar.insert('
p156
sI51
S'            image_url=request.vars.image_url,'
p157
sI52
S'        )'
p158
sI53
S'        t = db.user_avatar(t_id)'
p159
sI54
S'    return response.json(dict(t))'
p160
ssg85
S'()'
p161
sg87
S'update_avatar'
p162
sa(dp163
g64
S'/Users/admin/Desktop/cmps183/web2py/gluon/globals.py'
p164
sg66
(dp165
S'default'
p166
S'None'
p167
sS'global custom_json'
p168
S'<function custom_json>'
p169
sS'global json'
p170
S'<function json>'
p171
sS'data'
p172
S"{'belongs_to': 1L, 'delete_record': <pydal.helpers.classes.RecordDeleter object>, 'id': 1L, 'image_url': 'https://storage.googleapis.com/grubmeet/7cc881b4...hR5dR5NqzfgVuvqibBwf43oyUGs8E8ZzbjwsdajCyTg%3D%3D', 'update_record': <pydal.helpers.classes.RecordUpdater object>}"
p173
sS'indent'
p174
S'None'
p175
ssg72
I695
sg73
(dp176
I690
S'        return self.stream(stream, chunk_size=chunk_size, request=request)'
p177
sI691
S''
sI692
S'    def json(self, data, default=None, indent=None):'
p178
sI693
S"        if 'Content-Type' not in self.headers:"
p179
sI694
S"            self.headers['Content-Type'] = 'application/json'"
p180
sI695
S'        return json(data, default=default or custom_json, indent=indent)'
p181
sI696
S''
sI697
S'    def xmlrpc(self, request, methods):'
p182
sI698
S'        from gluon.xmlrpc import handler'
p183
sI699
S'        """'
p184
ssg85
S"(self=<Storage {'body': <cStringIO.StringO object at 0..._data)>, 'view': 'user_pref/update_avatar.html'}>, data={'belongs_to': 1L, 'delete_record': <pydal.helpers.classes.RecordDeleter object>, 'id': 1L, 'image_url': 'https://storage.googleapis.com/grubmeet/7cc881b4...hR5dR5NqzfgVuvqibBwf43oyUGs8E8ZzbjwsdajCyTg%3D%3D', 'update_record': <pydal.helpers.classes.RecordUpdater object>}, default=None, indent=None)"
p185
sg87
S'json'
p186
sa(dp187
g64
S'/Users/admin/Desktop/cmps183/web2py/gluon/serializers.py'
p188
sg66
(dp189
S'global json_parser'
p190
S"<module 'json' from '/Users/admin/anaconda3/envs/python27/lib/python2.7/json/__init__.pyc'>"
p191
sS'indent'
p192
S'None'
p193
sS'default'
p194
S'<function custom_json>'
p195
sS'value'
p196
S"{'belongs_to': 1L, 'delete_record': <pydal.helpers.classes.RecordDeleter object>, 'id': 1L, 'image_url': 'https://storage.googleapis.com/grubmeet/7cc881b4...hR5dR5NqzfgVuvqibBwf43oyUGs8E8ZzbjwsdajCyTg%3D%3D', 'update_record': <pydal.helpers.classes.RecordUpdater object>}"
p197
sS'json_parser.dumps'
p198
S'<function dumps>'
p199
sS'sort_keys'
p200
S'False'
p201
ssg72
I123
sg73
(dp202
I118
S"def xml(value, encoding='UTF-8', key='document', quote=True):"
p203
sI119
S'    return (\'<?xml version="1.0" encoding="%s"?>\' % encoding) + str(xml_rec(value, key, quote))'
p204
sI120
S''
sI121
S''
sI122
S'def json(value, default=custom_json, indent=None, sort_keys=False):'
p205
sI123
S'    value = json_parser.dumps(value, default=default, sort_keys=sort_keys, indent=indent)'
p206
sI124
S'    # replace JavaScript incompatible spacing'
p207
sI125
S'    # http://timelessrepo.com/json-isnt-a-javascript-subset'
p208
sI126
S'    # PY3 FIXME'
p209
sI127
S"    # return value.replace(ur'\\u2028', '\\\\u2028').replace(ur'\\2029', '\\\\u2029')"
p210
ssg85
S"(value={'belongs_to': 1L, 'delete_record': <pydal.helpers.classes.RecordDeleter object>, 'id': 1L, 'image_url': 'https://storage.googleapis.com/grubmeet/7cc881b4...hR5dR5NqzfgVuvqibBwf43oyUGs8E8ZzbjwsdajCyTg%3D%3D', 'update_record': <pydal.helpers.classes.RecordUpdater object>}, default=<function custom_json>, indent=None, sort_keys=False)"
p211
sg87
g186
sa(dp212
g64
S'/Users/admin/anaconda3/envs/python27/lib/python2.7/json/__init__.py'
p213
sg66
(dp214
S'obj'
p215
S"{'belongs_to': 1L, 'delete_record': <pydal.helpers.classes.RecordDeleter object>, 'id': 1L, 'image_url': 'https://storage.googleapis.com/grubmeet/7cc881b4...hR5dR5NqzfgVuvqibBwf43oyUGs8E8ZzbjwsdajCyTg%3D%3D', 'update_record': <pydal.helpers.classes.RecordUpdater object>}"
p216
sS'sort_keys'
p217
g201
sS'kw'
p218
g19
sS').encode'
p219
g108
ssg72
I251
sg73
(dp220
I246
S'        cls = JSONEncoder'
p221
sI247
S'    return cls('
p222
sI248
S'        skipkeys=skipkeys, ensure_ascii=ensure_ascii,'
p223
sI249
S'        check_circular=check_circular, allow_nan=allow_nan, indent=indent,'
p224
sI250
S'        separators=separators, encoding=encoding, default=default,'
p225
sI251
S'        sort_keys=sort_keys, **kw).encode(obj)'
p226
sI252
S''
sI253
S''
sI254
S'_default_decoder = JSONDecoder(encoding=None, object_hook=None,'
p227
sI255
S'                               object_pairs_hook=None)'
p228
ssg85
S"(obj={'belongs_to': 1L, 'delete_record': <pydal.helpers.classes.RecordDeleter object>, 'id': 1L, 'image_url': 'https://storage.googleapis.com/grubmeet/7cc881b4...hR5dR5NqzfgVuvqibBwf43oyUGs8E8ZzbjwsdajCyTg%3D%3D', 'update_record': <pydal.helpers.classes.RecordUpdater object>}, skipkeys=False, ensure_ascii=True, check_circular=True, allow_nan=True, cls=<class 'json.encoder.JSONEncoder'>, indent=None, separators=None, encoding='utf-8', default=<function custom_json>, sort_keys=False, **kw={})"
p229
sg87
S'dumps'
p230
sa(dp231
g64
S'/Users/admin/anaconda3/envs/python27/lib/python2.7/json/encoder.py'
p232
sg66
(dp233
S'self'
p234
S'<json.encoder.JSONEncoder object>'
p235
sS'o'
S"{'belongs_to': 1L, 'delete_record': <pydal.helpers.classes.RecordDeleter object>, 'id': 1L, 'image_url': 'https://storage.googleapis.com/grubmeet/7cc881b4...hR5dR5NqzfgVuvqibBwf43oyUGs8E8ZzbjwsdajCyTg%3D%3D', 'update_record': <pydal.helpers.classes.RecordUpdater object>}"
p236
sS'self.iterencode'
p237
S'<bound method JSONEncoder.iterencode of <json.encoder.JSONEncoder object>>'
p238
sS'_one_shot'
p239
g108
sS'chunks'
p240
g108
sS'builtinTrue'
p241
S'True'
p242
ssg72
I207
sg73
(dp243
I202
S'            else:'
p244
sI203
S'                return encode_basestring(o)'
p245
sI204
S"        # This doesn't pass the iterator directly to ''.join() because the"
p246
sI205
S"        # exceptions aren't as detailed.  The list call should be roughly"
p247
sI206
S"        # equivalent to the PySequence_Fast that ''.join() would do."
p248
sI207
S'        chunks = self.iterencode(o, _one_shot=True)'
p249
sI208
S'        if not isinstance(chunks, (list, tuple)):'
p250
sI209
S'            chunks = list(chunks)'
p251
sI210
S"        return ''.join(chunks)"
p252
sI211
S''
ssg85
S"(self=<json.encoder.JSONEncoder object>, o={'belongs_to': 1L, 'delete_record': <pydal.helpers.classes.RecordDeleter object>, 'id': 1L, 'image_url': 'https://storage.googleapis.com/grubmeet/7cc881b4...hR5dR5NqzfgVuvqibBwf43oyUGs8E8ZzbjwsdajCyTg%3D%3D', 'update_record': <pydal.helpers.classes.RecordUpdater object>})"
p253
sg87
S'encode'
p254
sa(dp255
g64
S'/Users/admin/anaconda3/envs/python27/lib/python2.7/json/encoder.py'
p256
sg66
(dp257
S'_iterencode'
p258
S'<_json.Encoder object>'
p259
sS'o'
S"{'belongs_to': 1L, 'delete_record': <pydal.helpers.classes.RecordDeleter object>, 'id': 1L, 'image_url': 'https://storage.googleapis.com/grubmeet/7cc881b4...hR5dR5NqzfgVuvqibBwf43oyUGs8E8ZzbjwsdajCyTg%3D%3D', 'update_record': <pydal.helpers.classes.RecordUpdater object>}"
p260
ssg72
I270
sg73
(dp261
I265
S'        else:'
p262
sI266
S'            _iterencode = _make_iterencode('
p263
sI267
S'                markers, self.default, _encoder, self.indent, floatstr,'
p264
sI268
S'                self.key_separator, self.item_separator, self.sort_keys,'
p265
sI269
S'                self.skipkeys, _one_shot)'
p266
sI270
S'        return _iterencode(o, 0)'
p267
sI271
S''
sI272
S'def _make_iterencode(markers, _default, _encoder, _indent, _floatstr,'
p268
sI273
S'        _key_separator, _item_separator, _sort_keys, _skipkeys, _one_shot,'
p269
sI274
S'        ## HACK: hand-optimized bytecode; turn globals into locals'
p270
ssg85
S"(self=<json.encoder.JSONEncoder object>, o={'belongs_to': 1L, 'delete_record': <pydal.helpers.classes.RecordDeleter object>, 'id': 1L, 'image_url': 'https://storage.googleapis.com/grubmeet/7cc881b4...hR5dR5NqzfgVuvqibBwf43oyUGs8E8ZzbjwsdajCyTg%3D%3D', 'update_record': <pydal.helpers.classes.RecordUpdater object>}, _one_shot=True)"
p271
sg87
S'iterencode'
p272
sa(dp273
g64
S'/Users/admin/Desktop/cmps183/web2py/gluon/serializers.py'
p274
sg66
(dp275
S'builtinrepr'
p276
S'<built-in function repr>'
p277
sS'builtinTypeError'
p278
S"<type 'exceptions.TypeError'>"
p279
sS'o'
S'<pydal.helpers.classes.RecordUpdater object>'
p280
ssg72
I99
sg73
(dp281
I96
S"    elif hasattr(o, 'as_dict') and callable(o.as_dict):"
p282
sI97
S'        return o.as_dict()'
p283
sI98
S'    else:'
p284
sI99
S'        raise TypeError(repr(o) + " is not JSON serializable")'
p285
sI100
S''
sI101
S''
sI102
S'def xml_rec(value, key, quote=True):'
p286
sI103
S"    if hasattr(value, 'custom_xml') and callable(value.custom_xml):"
p287
sI94
S"    elif hasattr(o, 'as_list') and callable(o.as_list):"
p288
sI95
S'        return o.as_list()'
p289
ssg85
S'(o=<pydal.helpers.classes.RecordUpdater object>)'
p290
sg87
S'custom_json'
p291
sasS'pyver'
p292
S'Python 2.7.14: /Users/admin/anaconda3/envs/python27/bin/python (prefix: /Users/admin/anaconda3/envs/python27)'
p293
sS'session'
p294
g59
(S's\xe8\x08\x00\x00<div><table><tr><td style="font-weight:bold;vertical-align:top;">auth</td><td style="vertical-align:top;">:</td><td><div><table><tr><td style="font-weight:bold;vertical-align:top;">expiration</td><td style="vertical-align:top;">:</td><td><div>3600</div></td></tr><tr><td style="font-weight:bold;vertical-align:top;">hmac_key</td><td style="vertical-align:top;">:</td><td><div>31144d05-5010-410d-996d-1247bac58586</div></td></tr><tr><td style="font-weight:bold;vertical-align:top;">last_visit</td><td style="vertical-align:top;">:</td><td><div>datetime.datetime(2018, 6, 12, 5, 35, 42, 241879)</div></td></tr><tr><td style="font-weight:bold;vertical-align:top;">remember_me</td><td style="vertical-align:top;">:</td><td><div>False</div></td></tr><tr><td style="font-weight:bold;vertical-align:top;">user</td><td style="vertical-align:top;">:</td><td><div><table><tr><td style="font-weight:bold;vertical-align:top;">email</td><td style="vertical-align:top;">:</td><td><div>test1@test.com</div></td></tr><tr><td style="font-weight:bold;vertical-align:top;">first_name</td><td style="vertical-align:top;">:</td><td><div>test1</div></td></tr><tr><td style="font-weight:bold;vertical-align:top;">id</td><td style="vertical-align:top;">:</td><td><div>1L</div></td></tr><tr><td style="font-weight:bold;vertical-align:top;">last_name</td><td style="vertical-align:top;">:</td><td><div>test1last</div></td></tr><tr><td style="font-weight:bold;vertical-align:top;">registration_id</td><td style="vertical-align:top;">:</td><td><div></div></td></tr><tr><td style="font-weight:bold;vertical-align:top;">registration_key</td><td style="vertical-align:top;">:</td><td><div></div></td></tr><tr><td style="font-weight:bold;vertical-align:top;">reset_password_key</td><td style="vertical-align:top;">:</td><td><div></div></td></tr></table></div></td></tr><tr><td style="font-weight:bold;vertical-align:top;">user_groups</td><td style="vertical-align:top;">:</td><td><div><table><tr><td style="font-weight:bold;vertical-align:top;">1</td><td style="vertical-align:top;">:</td><td><div>user_1</div></td></tr></table></div></td></tr></table></div></td></tr><tr><td style="font-weight:bold;vertical-align:top;">flash</td><td style="vertical-align:top;">:</td><td><div>None</div></td></tr></table></div>'
tRp295
sS'etype'
p296
S"<type 'exceptions.TypeError'>"
p297
sS'date'
p298
S'Tue Jun 12 05:40:53 2018'
p299
sS'response'
p300
g59
(S's\x1b\x1f\x00\x00<div><table><tr><td style="font-weight:bold;vertical-align:top;">body</td><td style="vertical-align:top;">:</td><td><div>&lt;cStringIO.StringO object at 0x10bc6c7a0&gt;</div></td></tr><tr><td style="font-weight:bold;vertical-align:top;">cookies</td><td style="vertical-align:top;">:</td><td><div><table><tr><td style="font-weight:bold;vertical-align:top;">session_id_grubmeet</td><td style="vertical-align:top;">:</td><td><div>8:9af1b1b8-ae83-43d2-bbac-2e36ef88f220<table><tr><td style="font-weight:bold;vertical-align:top;">comment</td><td style="vertical-align:top;">:</td><td><div></div></td></tr><tr><td style="font-weight:bold;vertical-align:top;">domain</td><td style="vertical-align:top;">:</td><td><div></div></td></tr><tr><td style="font-weight:bold;vertical-align:top;">expires</td><td style="vertical-align:top;">:</td><td><div></div></td></tr><tr><td style="font-weight:bold;vertical-align:top;">httponly</td><td style="vertical-align:top;">:</td><td><div></div></td></tr><tr><td style="font-weight:bold;vertical-align:top;">max-age</td><td style="vertical-align:top;">:</td><td><div></div></td></tr><tr><td style="font-weight:bold;vertical-align:top;">path</td><td style="vertical-align:top;">:</td><td><div>/</div></td></tr><tr><td style="font-weight:bold;vertical-align:top;">secure</td><td style="vertical-align:top;">:</td><td><div></div></td></tr><tr><td style="font-weight:bold;vertical-align:top;">version</td><td style="vertical-align:top;">:</td><td><div></div></td></tr></table></div></td></tr></table></div></td></tr><tr><td style="font-weight:bold;vertical-align:top;">delimiters</td><td style="vertical-align:top;">:</td><td><div><table><tr><td><div>{{</div></td></tr><tr><td><div>}}</div></td></tr></table></div></td></tr><tr><td style="font-weight:bold;vertical-align:top;">files</td><td style="vertical-align:top;">:</td><td><div><table></table></div></td></tr><tr><td style="font-weight:bold;vertical-align:top;">flash</td><td style="vertical-align:top;">:</td><td><div></div></td></tr><tr><td style="font-weight:bold;vertical-align:top;">form_label_separator</td><td style="vertical-align:top;">:</td><td><div></div></td></tr><tr><td style="font-weight:bold;vertical-align:top;">formstyle</td><td style="vertical-align:top;">:</td><td><div>bootstrap3_inline</div></td></tr><tr><td style="font-weight:bold;vertical-align:top;">generic_patterns</td><td style="vertical-align:top;">:</td><td><div><table><tr><td><div>*</div></td></tr></table></div></td></tr><tr><td style="font-weight:bold;vertical-align:top;">google_analytics_id</td><td style="vertical-align:top;">:</td><td><div>None</div></td></tr><tr><td style="font-weight:bold;vertical-align:top;">headers</td><td style="vertical-align:top;">:</td><td><div><table><tr><td style="font-weight:bold;vertical-align:top;">Content-Type</td><td style="vertical-align:top;">:</td><td><div>application/json</div></td></tr><tr><td style="font-weight:bold;vertical-align:top;">X-Powered-By</td><td style="vertical-align:top;">:</td><td><div>web2py</div></td></tr></table></div></td></tr><tr><td style="font-weight:bold;vertical-align:top;">logo</td><td style="vertical-align:top;">:</td><td><div><a class="navbar-brand" href="http://www.web2py.com/" id="web2py-logo"><b>web<span>2</span>py</b>&trade;&nbsp;</a></div></td></tr><tr><td style="font-weight:bold;vertical-align:top;">menu</td><td style="vertical-align:top;">:</td><td><div><table><tr><td><div><table><tr><td><div>Home</div></td></tr><tr><td><div>False</div></td></tr><tr><td><div>/grubmeet/default/index</div></td></tr><tr><td><div><table></table></div></td></tr></table></div></td></tr><tr><td><div><table><tr><td><div>Pictures of Events</div></td></tr><tr><td><div>False</div></td></tr><tr><td><div>/grubmeet/default/picture_gallery</div></td></tr></table></div></td></tr><tr><td><div><table><tr><td><div>Calendar</div></td></tr><tr><td><div>False</div></td></tr><tr><td><div>/grubmeet/default/calendar</div></td></tr></table></div></td></tr></table></div></td></tr><tr><td style="font-weight:bold;vertical-align:top;">meta</td><td style="vertical-align:top;">:</td><td><div><table><tr><td style="font-weight:bold;vertical-align:top;">author</td><td style="vertical-align:top;">:</td><td><div>Your Name &lt;you@example.com&gt;</div></td></tr><tr><td style="font-weight:bold;vertical-align:top;">description</td><td style="vertical-align:top;">:</td><td><div>a cool new app</div></td></tr><tr><td style="font-weight:bold;vertical-align:top;">generator</td><td style="vertical-align:top;">:</td><td><div>Web2py Web Framework</div></td></tr><tr><td style="font-weight:bold;vertical-align:top;">keywords</td><td style="vertical-align:top;">:</td><td><div><table><tr><td><div>web2py</div></td></tr><tr><td><div>python</div></td></tr><tr><td><div>framework</div></td></tr></table></div></td></tr></table></div></td></tr><tr><td style="font-weight:bold;vertical-align:top;">models_to_run</td><td style="vertical-align:top;">:</td><td><div><table><tr><td><div>^\\w+\\.py$</div></td></tr><tr><td><div>^user_pref/\\w+\\.py$</div></td></tr><tr><td><div>^user_pref/update_avatar/\\w+\\.py$</div></td></tr></table></div></td></tr><tr><td style="font-weight:bold;vertical-align:top;">postprocessing</td><td style="vertical-align:top;">:</td><td><div><table></table></div></td></tr><tr><td style="font-weight:bold;vertical-align:top;">session_client</td><td style="vertical-align:top;">:</td><td><div>127.0.0.1</div></td></tr><tr><td style="font-weight:bold;vertical-align:top;">session_cookie_compression_level</td><td style="vertical-align:top;">:</td><td><div>None</div></td></tr><tr><td style="font-weight:bold;vertical-align:top;">session_cookie_expires</td><td style="vertical-align:top;">:</td><td><div>None</div></td></tr><tr><td style="font-weight:bold;vertical-align:top;">session_data_name</td><td style="vertical-align:top;">:</td><td><div>session_data_grubmeet</div></td></tr><tr><td style="font-weight:bold;vertical-align:top;">session_db_record_id</td><td style="vertical-align:top;">:</td><td><div>8L</div></td></tr><tr><td style="font-weight:bold;vertical-align:top;">session_db_table</td><td style="vertical-align:top;">:</td><td><div>&lt;Table web2py_session_grubmeet (id, locked, client_ip, created_datetime, modified_datetime, unique_key, session_data)&gt;</div></td></tr><tr><td style="font-weight:bold;vertical-align:top;">session_db_unique_key</td><td style="vertical-align:top;">:</td><td><div>9af1b1b8-ae83-43d2-bbac-2e36ef88f220</div></td></tr><tr><td style="font-weight:bold;vertical-align:top;">session_hash</td><td style="vertical-align:top;">:</td><td><div>32cd8f306469d88e6f7da323de9d3e04</div></td></tr><tr><td style="font-weight:bold;vertical-align:top;">session_id</td><td style="vertical-align:top;">:</td><td><div>8:9af1b1b8-ae83-43d2-bbac-2e36ef88f220</div></td></tr><tr><td style="font-weight:bold;vertical-align:top;">session_id_name</td><td style="vertical-align:top;">:</td><td><div>session_id_grubmeet</div></td></tr><tr><td style="font-weight:bold;vertical-align:top;">session_masterapp</td><td style="vertical-align:top;">:</td><td><div>grubmeet</div></td></tr><tr><td style="font-weight:bold;vertical-align:top;">session_new</td><td style="vertical-align:top;">:</td><td><div>False</div></td></tr><tr><td style="font-weight:bold;vertical-align:top;">session_storage_type</td><td style="vertical-align:top;">:</td><td><div>db</div></td></tr><tr><td style="font-weight:bold;vertical-align:top;">status</td><td style="vertical-align:top;">:</td><td><div>200</div></td></tr><tr><td style="font-weight:bold;vertical-align:top;">subtitle</td><td style="vertical-align:top;">:</td><td><div></div></td></tr><tr><td style="font-weight:bold;vertical-align:top;">title</td><td style="vertical-align:top;">:</td><td><div>Grubmeet</div></td></tr><tr><td style="font-weight:bold;vertical-align:top;">view</td><td style="vertical-align:top;">:</td><td><div>user_pref/update_avatar.html</div></td></tr></table></div>'
tRp301
sS'locals'
p302
(dp303
S'o'
S'<pydal.helpers.classes.RecordUpdater object>'
p304
sssS'traceback'
p305
S'Traceback (most recent call last):\n  File "/Users/admin/Desktop/cmps183/web2py/gluon/restricted.py", line 219, in restricted\n    exec(ccode, environment)\n  File "/Users/admin/Desktop/cmps183/web2py/applications/grubmeet/controllers/user_pref.py", line 56, in <module>\n  File "/Users/admin/Desktop/cmps183/web2py/gluon/globals.py", line 419, in <lambda>\n    self._caller = lambda f: f()\n  File "/Users/admin/Desktop/cmps183/web2py/gluon/tools.py", line 3982, in f\n    return action(*a, **b)\n  File "/Users/admin/Desktop/cmps183/web2py/applications/grubmeet/controllers/user_pref.py", line 54, in update_avatar\n    return response.json(dict(t))\n  File "/Users/admin/Desktop/cmps183/web2py/gluon/globals.py", line 695, in json\n    return json(data, default=default or custom_json, indent=indent)\n  File "/Users/admin/Desktop/cmps183/web2py/gluon/serializers.py", line 123, in json\n    value = json_parser.dumps(value, default=default, sort_keys=sort_keys, indent=indent)\n  File "/Users/admin/anaconda3/envs/python27/lib/python2.7/json/__init__.py", line 251, in dumps\n    sort_keys=sort_keys, **kw).encode(obj)\n  File "/Users/admin/anaconda3/envs/python27/lib/python2.7/json/encoder.py", line 207, in encode\n    chunks = self.iterencode(o, _one_shot=True)\n  File "/Users/admin/anaconda3/envs/python27/lib/python2.7/json/encoder.py", line 270, in iterencode\n    return _iterencode(o, 0)\n  File "/Users/admin/Desktop/cmps183/web2py/gluon/serializers.py", line 99, in custom_json\n    raise TypeError(repr(o) + " is not JSON serializable")\nTypeError: <pydal.helpers.classes.RecordUpdater object at 0x10bb7c590> is not JSON serializable\n'
p306
s.