(dp1
S'output'
p2
S'missing "pass" in view'
p3
sS'layer'
p4
S'ParserContainer'
p5
sS'code'
p6
S'response.write(\'<head>\\n    <link rel="stylesheet" href="https://cdnjs.cloudflare.com/ajax/libs/semantic-ui/2.3.1/semantic.min.css"/>\\n    <link href="https://fonts.googleapis.com/css?family=Anton" rel="stylesheet">\\n    <script src="https://ajax.googleapis.com/ajax/libs/jquery/3.3.1/jquery.min.js"></script>\\n    <script src="\', escape=False)\nresponse.write(URL(\'static\',\'js/vue.js\'))\nresponse.write(\'"></script>\\n    <script src="https://cdnjs.cloudflare.com/ajax/libs/semantic-ui/2.3.1/semantic.min.js"></script>\\n</head>\\n\\n<div>\', escape=False)\nresponse.write(\'\\n\\n\\n<head>\\n    <link href="\', escape=False)\nresponse.write(URL(\'static\',\'css/sidebar.css\'))\nresponse.write(\'" rel="stylesheet" type="text/css"/>\\n</head>\\n\\n<div id="side-menu" class="ui pointing left fixed labeled icon vertical pointing menu">\\n    <div id="logo" class="item">\\n        GRUBMEET\\n    </div>\\n    <a class="item" href="\', escape=False)\nresponse.write(URL(\'default\', \'user\', args=\'logout\'))\nresponse.write(\'">\\n        <img class="ui circular image" src="https://image.flaticon.com/icons/svg/145/145867.svg"\\n             style="background: white;">\\n        <div style="padding-top: 10px;">Sign Out</div>\\n    </a>\\n    <a href="\', escape=False)\nresponse.write(URL(\'default\', \'my_meals\'))\nresponse.write(\'" id="create_meal_tab" class="item">\\n        <i class="user outline icon"></i>\\n        My Meals\\n    </a>\\n    <a href="\', escape=False)\nresponse.write(URL(\'default\', \'explore\'))\nresponse.write(\'" id="explore_tab" class="item">\\n        <i class="Search icon"></i>\\n        Explore\\n    </a>\\n    <a href="\', escape=False)\nresponse.write(URL(\'default\', \'messages\'))\nresponse.write(\'" id="messages_tab" class="item">\\n        <i class="envelope outline icon"></i>\\n        Messages\\n\\n    </a>\\n    <a href="\', escape=False)\nresponse.write(URL(\'default\', \'calendar\'))\nresponse.write(\'" id="calendar_tab" class="item">\\n        <i class="calendar alternate outline icon"></i>\\n        Calendar</a>\\n    <a href="\', escape=False)\nresponse.write(URL(\'default\', \'preferences\'))\nresponse.write(\'" id="preferences_tab" class="item">\\n        <i class="cogs icon"></i>\\n        Preferences\\n    </a>\\n</div>\\n\\n<script src="\', escape=False)\nresponse.write(URL(\'static\',\'js/default/sidebar.js\'))\nresponse.write(\'"></script>\\n\\n\\n<div id="content">\', escape=False)\nresponse.write(\'\\n\\n<head>\\n    <link href="\', escape=False)\nresponse.write(URL(\'static\',\'css/myapp.css\'))\nresponse.write(\'" rel="stylesheet" type="text/css"/>\\n\\n    <script>\\n        var memo_url = "\', escape=False)\nresponse.write(URL(\'api\', \'get_memos\'))\nresponse.write(\'";\\n        var add_memo_url = "\', escape=False)\nresponse.write(URL(\'api\', \'add_memo\', user_signature=True))\nresponse.write(\'";\\n        var del_memo_url = "\', escape=False)\nresponse.write(URL(\'api\', \'del_memo\', user_signature=True))\nresponse.write(\'";\\n        // hash_vars=False disable signing after question mark\\n        var toggle_visibility_url = "\', escape=False)\nresponse.write(URL(\'api\', \'toggle_visibility\', user_signature=True))\nresponse.write(\'";\\n    </script>\\n\\n    <style>\\n        .hidden {\\n            display: none;\\n        }\\n    </style>\\n</head>\\n\\n\\n<div class="main_content">\\n    <div id="explore-div" class="hidden">\\n\\n    \', escape=False)\nif auth.user is not None:\n    response.write(\'\\n        <div class="button_bar">\\n            <button v-if="!is_adding_memo" id="add_meal_btn" class="ui labeled icon button"\\n                    v-on:click="add_memo_button()"\\n                    :disabled="!logged_in"\\n                    v-bind:class="{\\\'disabled\\\': !logged_in}">\\n                <!-- \\\'disabled\\\' html attribute will be T/F based on !logged_in -->\\n                <!-- \\\'disabled\\\' class will appear based on T/F of !logged_in -->\\n                <i class="plus icon"></i>Add Meal Event\\n            </button>\\n        </div>\\n        <br>\\n\\n        <!-- meal view-->\\n        <div id="my-meals-card" class="ui special cards">\\n            <div v-for="m in memolist" class="card">\\n                <div class="image">\\n                    <img src="https://image.flaticon.com/icons/svg/214/214298.svg">\\n                </div>\\n                <div v-if="!m.is_being_edited" class="content">\\n                    <div class="header">${m.title}</div>\\n                    <div class="description">${m.memo}</div>\\n                </div>\\n                <div v-if="!m.is_being_edited" class="extra content">\\n                    <div><i class="users icon"></i>2 out of 8 People Joined</div>\\n                    <div>\\n                        <i class="clock outline icon"></i>${m.time_of_event}\\n                        <i class="calendar alternate outline icon"></i>${m.datetime}\\n                    </div>\\n                    <div><i class="map marker alternate icon"></i>${m.area}</div>\\n                    <div><i class="exclamation circle icon"></i>${m.allergens}</div>\\n                    <div v-if="!m.is_being_edited" class="button_list" style="padding-top: 10px;">\\n                        <div class="ui two buttons">\\n                            <button v-if="m.user_email === \\\'\', escape=False)\n    response.write(auth.user.email)\n    response.write(\'\\\'"\\n                                    class="ui basic green icon button"\\n                                    v-on:click="init_edit_memo(m._idx)"><i class="edit outline icon"></i>\\n                            </button>\\n\\n                            <button v-if="m.user_email === \\\'\', escape=False)\n    response.write(auth.user.email)\n    response.write(\'\\\'" class="ui basic red icon button"\\n                                    v-on:click="delete_memo(m._idx)"><i class="trash alternate outline icon"></i>\\n                            </button>\\n                        </div>\\n                    </div>\\n                </div>\\n            </div>\\n        </div>\\n\\n        <div v-if="has_more" class="show_more">\\n            <button class="btn btn-default rounded" v-on:click="get_more()">\\n                <i class="fa fa-ellipsis-h"></i> Load More\\n            </button>\\n        </div>\\n\\n    </div>\\n</div>\\n\\n<script>\\n</script>\\n<script src="\', escape=False)\n    response.write(URL(\'static\',\'js/explore.js\'))\n    response.write(\'"></script>\\n\', escape=False)\n    response.write(\'</div>\\n\', escape=False)\n    response.write(\'</div>\\n\\n\\n\', escape=False)'
p7
sS'snapshot'
p8
(dp9
S'exception'
p10
(dp11
S'__module__'
p12
S"'gluon.rocket'"
p13
sS'__getslice__'
p14
S"<method-wrapper '__getslice__' of SocketTimeout object>"
p15
sS'__str__'
p16
S"<method-wrapper '__str__' of SocketTimeout object>"
p17
sS'__reduce__'
p18
S'<built-in method __reduce__ of SocketTimeout object>'
p19
sS'__dict__'
p20
S'{}'
p21
sS'__sizeof__'
p22
S'<built-in method __sizeof__ of SocketTimeout object>'
p23
sS'__weakref__'
p24
S'None'
p25
sS'message'
p26
S"'Socket timed out before request.'"
p27
sS'__init__'
p28
S"<method-wrapper '__init__' of SocketTimeout object>"
p29
sS'__setattr__'
p30
S"<method-wrapper '__setattr__' of SocketTimeout object>"
p31
sS'__reduce_ex__'
p32
S'<built-in method __reduce_ex__ of SocketTimeout object>'
p33
sS'__new__'
p34
S'<built-in method __new__ of type object>'
p35
sS'__format__'
p36
S'<built-in method __format__ of SocketTimeout object>'
p37
sS'__class__'
p38
S"<class 'gluon.rocket.SocketTimeout'>"
p39
sS'__doc__'
p40
S"'Exception for when a socket times out between requests.'"
p41
sS'__getitem__'
p42
S"<method-wrapper '__getitem__' of SocketTimeout object>"
p43
sS'__setstate__'
p44
S'<built-in method __setstate__ of SocketTimeout object>'
p45
sS'__getattribute__'
p46
S"<method-wrapper '__getattribute__' of SocketTimeout object>"
p47
sS'args'
p48
S"('Socket timed out before request.',)"
p49
sS'__subclasshook__'
p50
S'<built-in method __subclasshook__ of type object>'
p51
sS'__unicode__'
p52
S'<built-in method __unicode__ of SocketTimeout object>'
p53
sS'__delattr__'
p54
S"<method-wrapper '__delattr__' of SocketTimeout object>"
p55
sS'__repr__'
p56
S"<method-wrapper '__repr__' of SocketTimeout object>"
p57
sS'__hash__'
p58
S"<method-wrapper '__hash__' of SocketTimeout object>"
p59
ssS'evalue'
p60
S'Socket timed out before request.'
p61
sS'frames'
p62
(lp63
(dp64
S'file'
p65
S'/Users/admin/Desktop/cmps183/web2py/gluon/rocket.py'
p66
sS'dump'
p67
(dp68
S'self'
p69
S'<WSGIWorker(Thread-31, started daemon 123145483857920)>'
p70
sS'conn'
p71
S'<gluon.rocket.Connection object>'
p72
sS'self.run_app'
p73
S'<bound method WSGIWorker.run_app of <WSGIWorker(Thread-31, started daemon 123145483857920)>>'
p74
ssS'lnum'
p75
I1319
sS'lines'
p76
(dp77
I1314
S'            # Enter connection serve loop'
p78
sI1315
S'            while True:'
p79
sI1316
S'                if __debug__:'
p80
sI1317
S"                    self.err_log.debug('Serving a request')"
p81
sI1318
S'                try:'
p82
sI1319
S'                    self.run_app(conn)'
p83
sI1320
S'                except:'
p84
sI1321
S'                    exc = sys.exc_info()'
p85
sI1322
S'                    handled = self._handleError(*exc)'
p86
sI1323
S'                    if handled:'
p87
ssS'call'
p88
S'(self=<WSGIWorker(Thread-31, started daemon 123145483857920)>)'
p89
sS'func'
p90
S'run'
p91
sa(dp92
g65
S'/Users/admin/Desktop/cmps183/web2py/gluon/rocket.py'
p93
sg67
(dp94
S'self'
p95
S'<WSGIWorker(Thread-31, started daemon 123145483857920)>'
p96
sS'self.environ'
p97
S'{\'HTTP_ACCEPT\': \'text/html,application/xhtml+xml,application/xml;q=0.9,image/webp,image/apng,*/*;q=0.8\', \'HTTP_ACCEPT_ENCODING\': \'gzip, deflate, br\', \'HTTP_ACCEPT_LANGUAGE\': \'en-US,en;q=0.9,zh-TW;q=0.8,zh;q=0.7,zh-CN;q=0.6\', \'HTTP_CACHE_CONTROL\': \'no-cache\', \'HTTP_CONNECTION\': \'keep-alive\', \'HTTP_COOKIE\': \'session_id_admin=127.0.0.1-13c2104f-2e5c-41bc-b7...grubmeet="7:8cf443c9-459a-48df-bc39-2f5c1f4f3c01"\', \'HTTP_HOST\': \'127.0.0.1:8000\', \'HTTP_PRAGMA\': \'no-cache\', \'HTTP_REFERER\': \'http://127.0.0.1:8000/grubmeet/default/my_meals\', \'HTTP_UPGRADE_INSECURE_REQUESTS\': \'1\', ...}'
p98
sS'sock_file'
p99
S'<socket._fileobject object>'
p100
sS'environ'
p101
S'undefined'
p102
sS'self.build_environ'
p103
S'<bound method WSGIWorker.build_environ of <WSGIWorker(Thread-31, started daemon 123145483857920)>>'
p104
sS'conn'
p105
S'<gluon.rocket.Connection object>'
p106
ssg75
I1812
sg76
(dp107
I1807
S'        else:'
p108
sI1808
S'            sock_file = conn.makefile(BUF_SIZE)'
p109
sI1809
S''
sI1810
S'        try:'
p110
sI1811
S'            # Read the headers and build our WSGI environment'
p111
sI1812
S'            self.environ = environ = self.build_environ(sock_file, conn)'
p112
sI1813
S''
sI1814
S'            # Handle 100 Continue'
p113
sI1815
S"            if environ.get('HTTP_EXPECT', '') == '100-continue':"
p114
sI1816
S"                res = environ['SERVER_PROTOCOL'] + ' 100 Continue\\r\\n\\r\\n'"
p115
ssg88
S'(self=<WSGIWorker(Thread-31, started daemon 123145483857920)>, conn=<gluon.rocket.Connection object>)'
p116
sg90
S'run_app'
p117
sa(dp118
g65
S'/Users/admin/Desktop/cmps183/web2py/gluon/rocket.py'
p119
sg67
(dp120
S'sock_file'
p121
S'<socket._fileobject object>'
p122
sS'self.read_request_line'
p123
S'<bound method WSGIWorker.read_request_line of <W...rker(Thread-31, started daemon 123145483857920)>>'
p124
sS'self'
p125
S'<WSGIWorker(Thread-31, started daemon 123145483857920)>'
p126
sS'request'
p127
g102
ssg75
I1632
sg76
(dp128
I1632
S'        request = self.read_request_line(sock_file)'
p129
sI1633
S''
sI1634
S'        # Copy the Base Environment'
p130
sI1635
S'        environ = self.base_environ.copy()'
p131
sI1636
S''
sI1627
S'                                      "wsgiorg.futures": executor.futures})'
p132
sI1628
S''
sI1629
S'    def build_environ(self, sock_file, conn):'
p133
sI1630
S'        """ Build the execution environment. """'
p134
sI1631
S'        # Grab the request line'
p135
ssg88
S'(self=<WSGIWorker(Thread-31, started daemon 123145483857920)>, sock_file=<socket._fileobject object>, conn=<gluon.rocket.Connection object>)'
p136
sg90
S'build_environ'
p137
sa(dp138
g65
S'/Users/admin/Desktop/cmps183/web2py/gluon/rocket.py'
p139
sg67
(dp140
S'global SocketTimeout'
p141
S"<class 'gluon.rocket.SocketTimeout'>"
p142
ssg75
I1383
sg76
(dp143
I1378
S''
sI1379
S'                d = sock_file.readline()'
p144
sI1380
S'                if PY3K:'
p145
sI1381
S"                    d = d.decode('ISO-8859-1')"
p146
sI1382
S'        except socket.timeout:'
p147
sI1383
S"            raise SocketTimeout('Socket timed out before request.')"
p148
sI1384
S'        except TypeError:'
p149
sI1385
S'            raise SocketClosed('
p150
sI1386
S"                'SSL bug caused closure of socket.  See '"
p151
sI1387
S'                \'"https://groups.google.com/d/topic/web2py/P_Gw0JxWzCs".\')'
p152
ssg88
S'(self=<WSGIWorker(Thread-31, started daemon 123145483857920)>, sock_file=<socket._fileobject object>)'
p153
sg90
S'read_request_line'
p154
sasS'pyver'
p155
S'Python 2.7.14: /Users/admin/anaconda3/envs/python27/bin/python (prefix: /Users/admin/anaconda3/envs/python27)'
p156
sS'etype'
p157
S"<class 'gluon.rocket.SocketTimeout'>"
p158
sS'date'
p159
S'Fri Jun  8 01:19:29 2018'
p160
sS'locals'
p161
(dp162
S'sock_file'
p163
S'<socket._fileobject object>'
p164
sS'self'
p165
S'<WSGIWorker(Thread-31, started daemon 123145483857920)>'
p166
sssS'traceback'
p167
S'Traceback (most recent call last):\n  File "/Users/admin/Desktop/cmps183/web2py/gluon/rocket.py", line 1319, in run\n    self.run_app(conn)\n  File "/Users/admin/Desktop/cmps183/web2py/gluon/rocket.py", line 1812, in run_app\n    self.environ = environ = self.build_environ(sock_file, conn)\n  File "/Users/admin/Desktop/cmps183/web2py/gluon/rocket.py", line 1632, in build_environ\n    request = self.read_request_line(sock_file)\n  File "/Users/admin/Desktop/cmps183/web2py/gluon/rocket.py", line 1383, in read_request_line\n    raise SocketTimeout(\'Socket timed out before request.\')\nSocketTimeout: Socket timed out before request.\n'
p168
s.